
asms/matrix_mul/matrix_mul.elf:     file format elf32-littleriscv


Disassembly of section .text:

00000000 <_start>:
   0:	00010137          	lui	sp,0x10
   4:	078000ef          	jal	7c <main>
   8:	00100073          	ebreak
   c:	0000006f          	j	c <_start+0xc>

00000010 <multiply>:
  10:	00050793          	mv	a5,a0
  14:	04054263          	bltz	a0,58 <multiply+0x48>
  18:	0205ca63          	bltz	a1,4c <multiply+0x3c>
  1c:	00000693          	li	a3,0
  20:	04058463          	beqz	a1,68 <multiply+0x58>
  24:	00000513          	li	a0,0
  28:	0015f713          	and	a4,a1,1
  2c:	4015d593          	sra	a1,a1,0x1
  30:	00070463          	beqz	a4,38 <multiply+0x28>
  34:	00f50533          	add	a0,a0,a5
  38:	00179793          	sll	a5,a5,0x1
  3c:	fe0596e3          	bnez	a1,28 <multiply+0x18>
  40:	00068463          	beqz	a3,48 <multiply+0x38>
  44:	40a00533          	neg	a0,a0
  48:	00008067          	ret
  4c:	00100693          	li	a3,1
  50:	40b005b3          	neg	a1,a1
  54:	fd1ff06f          	j	24 <multiply+0x14>
  58:	40a007b3          	neg	a5,a0
  5c:	0005ca63          	bltz	a1,70 <multiply+0x60>
  60:	00100693          	li	a3,1
  64:	fc0590e3          	bnez	a1,24 <multiply+0x14>
  68:	00000513          	li	a0,0
  6c:	00008067          	ret
  70:	00000693          	li	a3,0
  74:	40b005b3          	neg	a1,a1
  78:	fadff06f          	j	24 <multiply+0x14>

0000007c <main>:
  7c:	ff010113          	add	sp,sp,-16 # fff0 <C+0xf85c>
  80:	59400813          	li	a6,1428
  84:	00812623          	sw	s0,12(sp)
  88:	00912423          	sw	s1,8(sp)
  8c:	00700793          	li	a5,7
  90:	00600693          	li	a3,6
  94:	00500613          	li	a2,5
  98:	00400593          	li	a1,4
  9c:	00300513          	li	a0,3
  a0:	00200893          	li	a7,2
  a4:	00100313          	li	t1,1
  a8:	00800713          	li	a4,8
  ac:	00900e93          	li	t4,9
  b0:	00a00f13          	li	t5,10
  b4:	10682023          	sw	t1,256(a6)
  b8:	00682223          	sw	t1,4(a6)
  bc:	10682223          	sw	t1,260(a6)
  c0:	01182423          	sw	a7,8(a6)
  c4:	10682423          	sw	t1,264(a6)
  c8:	10682623          	sw	t1,268(a6)
  cc:	00b82823          	sw	a1,16(a6)
  d0:	10682823          	sw	t1,272(a6)
  d4:	10682a23          	sw	t1,276(a6)
  d8:	10682c23          	sw	t1,280(a6)
  dc:	00f82e23          	sw	a5,28(a6)
  e0:	10682e23          	sw	t1,284(a6)
  e4:	02682023          	sw	t1,32(a6)
  e8:	13182023          	sw	a7,288(a6)
  ec:	03182223          	sw	a7,36(a6)
  f0:	13182223          	sw	a7,292(a6)
  f4:	13182423          	sw	a7,296(a6)
  f8:	02b82623          	sw	a1,44(a6)
  fc:	13182623          	sw	a7,300(a6)
 100:	13182823          	sw	a7,304(a6)
 104:	13182a23          	sw	a7,308(a6)
 108:	02f82c23          	sw	a5,56(a6)
 10c:	13182c23          	sw	a7,312(a6)
 110:	00082023          	sw	zero,0(a6)
 114:	00a82623          	sw	a0,12(a6)
 118:	00c82a23          	sw	a2,20(a6)
 11c:	00d82c23          	sw	a3,24(a6)
 120:	02a82423          	sw	a0,40(a6)
 124:	02c82823          	sw	a2,48(a6)
 128:	02d82a23          	sw	a3,52(a6)
 12c:	02e82e23          	sw	a4,60(a6)
 130:	00c00313          	li	t1,12
 134:	13182e23          	sw	a7,316(a6)
 138:	05182023          	sw	a7,64(a6)
 13c:	04b82423          	sw	a1,72(a6)
 140:	00b00893          	li	a7,11
 144:	04f82a23          	sw	a5,84(a6)
 148:	16b82023          	sw	a1,352(a6)
 14c:	06b82223          	sw	a1,100(a6)
 150:	16b82223          	sw	a1,356(a6)
 154:	16b82423          	sw	a1,360(a6)
 158:	16b82623          	sw	a1,364(a6)
 15c:	06f82823          	sw	a5,112(a6)
 160:	16b82823          	sw	a1,368(a6)
 164:	16b82a23          	sw	a1,372(a6)
 168:	16b82c23          	sw	a1,376(a6)
 16c:	14a82023          	sw	a0,320(a6)
 170:	04a82223          	sw	a0,68(a6)
 174:	14a82223          	sw	a0,324(a6)
 178:	14a82423          	sw	a0,328(a6)
 17c:	04c82623          	sw	a2,76(a6)
 180:	14a82623          	sw	a0,332(a6)
 184:	04d82823          	sw	a3,80(a6)
 188:	14a82823          	sw	a0,336(a6)
 18c:	14a82a23          	sw	a0,340(a6)
 190:	04e82c23          	sw	a4,88(a6)
 194:	14a82c23          	sw	a0,344(a6)
 198:	05d82e23          	sw	t4,92(a6)
 19c:	14a82e23          	sw	a0,348(a6)
 1a0:	06a82023          	sw	a0,96(a6)
 1a4:	06c82423          	sw	a2,104(a6)
 1a8:	06d82623          	sw	a3,108(a6)
 1ac:	06e82a23          	sw	a4,116(a6)
 1b0:	07d82c23          	sw	t4,120(a6)
 1b4:	07e82e23          	sw	t5,124(a6)
 1b8:	16b82e23          	sw	a1,380(a6)
 1bc:	08b82023          	sw	a1,128(a6)
 1c0:	08f82623          	sw	a5,140(a6)
 1c4:	0af82423          	sw	a5,168(a6)
 1c8:	18c82023          	sw	a2,384(a6)
 1cc:	08c82223          	sw	a2,132(a6)
 1d0:	18c82223          	sw	a2,388(a6)
 1d4:	08d82423          	sw	a3,136(a6)
 1d8:	18c82423          	sw	a2,392(a6)
 1dc:	18c82623          	sw	a2,396(a6)
 1e0:	08e82823          	sw	a4,144(a6)
 1e4:	18c82823          	sw	a2,400(a6)
 1e8:	09d82a23          	sw	t4,148(a6)
 1ec:	18c82a23          	sw	a2,404(a6)
 1f0:	09e82c23          	sw	t5,152(a6)
 1f4:	18c82c23          	sw	a2,408(a6)
 1f8:	09182e23          	sw	a7,156(a6)
 1fc:	18c82e23          	sw	a2,412(a6)
 200:	0ac82023          	sw	a2,160(a6)
 204:	1ad82023          	sw	a3,416(a6)
 208:	0ad82223          	sw	a3,164(a6)
 20c:	1ad82223          	sw	a3,420(a6)
 210:	1ad82423          	sw	a3,424(a6)
 214:	0ae82623          	sw	a4,172(a6)
 218:	1ad82623          	sw	a3,428(a6)
 21c:	0bd82823          	sw	t4,176(a6)
 220:	1ad82823          	sw	a3,432(a6)
 224:	0be82a23          	sw	t5,180(a6)
 228:	1ad82a23          	sw	a3,436(a6)
 22c:	0b182c23          	sw	a7,184(a6)
 230:	1ad82c23          	sw	a3,440(a6)
 234:	0a682e23          	sw	t1,188(a6)
 238:	1ad82e23          	sw	a3,444(a6)
 23c:	0cd82023          	sw	a3,192(a6)
 240:	00d00593          	li	a1,13
 244:	1cf82023          	sw	a5,448(a6)
 248:	12080493          	add	s1,a6,288
 24c:	0cf82223          	sw	a5,196(a6)
 250:	1cf82223          	sw	a5,452(a6)
 254:	1cf82423          	sw	a5,456(a6)
 258:	1cf82623          	sw	a5,460(a6)
 25c:	1cf82823          	sw	a5,464(a6)
 260:	1cf82a23          	sw	a5,468(a6)
 264:	1cf82c23          	sw	a5,472(a6)
 268:	1cf82e23          	sw	a5,476(a6)
 26c:	0ef82023          	sw	a5,224(a6)
 270:	00e00793          	li	a5,14
 274:	02080e13          	add	t3,a6,32
 278:	0ce82423          	sw	a4,200(a6)
 27c:	0dd82623          	sw	t4,204(a6)
 280:	0de82823          	sw	t5,208(a6)
 284:	0d182a23          	sw	a7,212(a6)
 288:	0c682c23          	sw	t1,216(a6)
 28c:	0cb82e23          	sw	a1,220(a6)
 290:	1ee82023          	sw	a4,480(a6)
 294:	0ee82223          	sw	a4,228(a6)
 298:	1ee82223          	sw	a4,484(a6)
 29c:	0fd82423          	sw	t4,232(a6)
 2a0:	1ee82423          	sw	a4,488(a6)
 2a4:	0fe82623          	sw	t5,236(a6)
 2a8:	1ee82623          	sw	a4,492(a6)
 2ac:	0f182823          	sw	a7,240(a6)
 2b0:	1ee82823          	sw	a4,496(a6)
 2b4:	0e682a23          	sw	t1,244(a6)
 2b8:	1ee82a23          	sw	a4,500(a6)
 2bc:	0eb82c23          	sw	a1,248(a6)
 2c0:	1ee82c23          	sw	a4,504(a6)
 2c4:	0ef82e23          	sw	a5,252(a6)
 2c8:	1ee82e23          	sw	a4,508(a6)
 2cc:	20080413          	add	s0,a6,512
 2d0:	69400393          	li	t2,1684
 2d4:	00048f93          	mv	t6,s1
 2d8:	00038e93          	mv	t4,t2
 2dc:	00040f13          	mv	t5,s0
 2e0:	fe0e0293          	add	t0,t3,-32
 2e4:	00028593          	mv	a1,t0
 2e8:	000e8513          	mv	a0,t4
 2ec:	00000893          	li	a7,0
 2f0:	0005a703          	lw	a4,0(a1)
 2f4:	00052783          	lw	a5,0(a0)
 2f8:	26074463          	bltz	a4,560 <main+0x4e4>
 2fc:	2807c063          	bltz	a5,57c <main+0x500>
 300:	00000313          	li	t1,0
 304:	02078463          	beqz	a5,32c <main+0x2b0>
 308:	00000613          	li	a2,0
 30c:	0017f693          	and	a3,a5,1
 310:	4017d793          	sra	a5,a5,0x1
 314:	00068463          	beqz	a3,31c <main+0x2a0>
 318:	00e60633          	add	a2,a2,a4
 31c:	00171713          	sll	a4,a4,0x1
 320:	fe0796e3          	bnez	a5,30c <main+0x290>
 324:	24030863          	beqz	t1,574 <main+0x4f8>
 328:	40c888b3          	sub	a7,a7,a2
 32c:	00458593          	add	a1,a1,4
 330:	02050513          	add	a0,a0,32
 334:	fbc59ee3          	bne	a1,t3,2f0 <main+0x274>
 338:	011f2023          	sw	a7,0(t5)
 33c:	004e8e93          	add	t4,t4,4
 340:	004f0f13          	add	t5,t5,4
 344:	fbfe90e3          	bne	t4,t6,2e4 <main+0x268>
 348:	02058e13          	add	t3,a1,32
 34c:	02040413          	add	s0,s0,32
 350:	f89e14e3          	bne	t3,s1,2d8 <main+0x25c>
 354:	20482683          	lw	a3,516(a6)
 358:	20082783          	lw	a5,512(a6)
 35c:	20882703          	lw	a4,520(a6)
 360:	20c82583          	lw	a1,524(a6)
 364:	21082603          	lw	a2,528(a6)
 368:	00d787b3          	add	a5,a5,a3
 36c:	00e787b3          	add	a5,a5,a4
 370:	21482683          	lw	a3,532(a6)
 374:	21882703          	lw	a4,536(a6)
 378:	00b787b3          	add	a5,a5,a1
 37c:	00c787b3          	add	a5,a5,a2
 380:	21c82583          	lw	a1,540(a6)
 384:	22082603          	lw	a2,544(a6)
 388:	00d787b3          	add	a5,a5,a3
 38c:	00e787b3          	add	a5,a5,a4
 390:	22482683          	lw	a3,548(a6)
 394:	22882703          	lw	a4,552(a6)
 398:	00b787b3          	add	a5,a5,a1
 39c:	00c787b3          	add	a5,a5,a2
 3a0:	22c82583          	lw	a1,556(a6)
 3a4:	23082603          	lw	a2,560(a6)
 3a8:	00d787b3          	add	a5,a5,a3
 3ac:	00e787b3          	add	a5,a5,a4
 3b0:	23482683          	lw	a3,564(a6)
 3b4:	23882703          	lw	a4,568(a6)
 3b8:	00b787b3          	add	a5,a5,a1
 3bc:	00c787b3          	add	a5,a5,a2
 3c0:	23c82583          	lw	a1,572(a6)
 3c4:	24082603          	lw	a2,576(a6)
 3c8:	00d787b3          	add	a5,a5,a3
 3cc:	00e787b3          	add	a5,a5,a4
 3d0:	24482683          	lw	a3,580(a6)
 3d4:	24882703          	lw	a4,584(a6)
 3d8:	00b787b3          	add	a5,a5,a1
 3dc:	00c787b3          	add	a5,a5,a2
 3e0:	24c82583          	lw	a1,588(a6)
 3e4:	25082603          	lw	a2,592(a6)
 3e8:	00d787b3          	add	a5,a5,a3
 3ec:	00e787b3          	add	a5,a5,a4
 3f0:	25482683          	lw	a3,596(a6)
 3f4:	25882703          	lw	a4,600(a6)
 3f8:	00b787b3          	add	a5,a5,a1
 3fc:	00c787b3          	add	a5,a5,a2
 400:	25c82583          	lw	a1,604(a6)
 404:	26082603          	lw	a2,608(a6)
 408:	00d787b3          	add	a5,a5,a3
 40c:	00e787b3          	add	a5,a5,a4
 410:	26482683          	lw	a3,612(a6)
 414:	26882703          	lw	a4,616(a6)
 418:	00b787b3          	add	a5,a5,a1
 41c:	00c787b3          	add	a5,a5,a2
 420:	26c82583          	lw	a1,620(a6)
 424:	27082603          	lw	a2,624(a6)
 428:	00d787b3          	add	a5,a5,a3
 42c:	00e787b3          	add	a5,a5,a4
 430:	27482683          	lw	a3,628(a6)
 434:	27882703          	lw	a4,632(a6)
 438:	00b787b3          	add	a5,a5,a1
 43c:	00c787b3          	add	a5,a5,a2
 440:	27c82583          	lw	a1,636(a6)
 444:	00d787b3          	add	a5,a5,a3
 448:	28082603          	lw	a2,640(a6)
 44c:	00e787b3          	add	a5,a5,a4
 450:	28482683          	lw	a3,644(a6)
 454:	28882703          	lw	a4,648(a6)
 458:	00b787b3          	add	a5,a5,a1
 45c:	00c787b3          	add	a5,a5,a2
 460:	28c82583          	lw	a1,652(a6)
 464:	29082603          	lw	a2,656(a6)
 468:	00d787b3          	add	a5,a5,a3
 46c:	00e787b3          	add	a5,a5,a4
 470:	29482683          	lw	a3,660(a6)
 474:	29882703          	lw	a4,664(a6)
 478:	00b787b3          	add	a5,a5,a1
 47c:	00c787b3          	add	a5,a5,a2
 480:	29c82583          	lw	a1,668(a6)
 484:	2a082603          	lw	a2,672(a6)
 488:	00d787b3          	add	a5,a5,a3
 48c:	00e787b3          	add	a5,a5,a4
 490:	2a482683          	lw	a3,676(a6)
 494:	2a882703          	lw	a4,680(a6)
 498:	00b787b3          	add	a5,a5,a1
 49c:	00c787b3          	add	a5,a5,a2
 4a0:	2ac82583          	lw	a1,684(a6)
 4a4:	2b082603          	lw	a2,688(a6)
 4a8:	00d787b3          	add	a5,a5,a3
 4ac:	00e787b3          	add	a5,a5,a4
 4b0:	2b482683          	lw	a3,692(a6)
 4b4:	2b882703          	lw	a4,696(a6)
 4b8:	00b787b3          	add	a5,a5,a1
 4bc:	00c787b3          	add	a5,a5,a2
 4c0:	2bc82583          	lw	a1,700(a6)
 4c4:	2c082603          	lw	a2,704(a6)
 4c8:	00d787b3          	add	a5,a5,a3
 4cc:	00e787b3          	add	a5,a5,a4
 4d0:	2c482683          	lw	a3,708(a6)
 4d4:	2c882703          	lw	a4,712(a6)
 4d8:	00b787b3          	add	a5,a5,a1
 4dc:	00c787b3          	add	a5,a5,a2
 4e0:	2cc82583          	lw	a1,716(a6)
 4e4:	2d082603          	lw	a2,720(a6)
 4e8:	00d787b3          	add	a5,a5,a3
 4ec:	00e787b3          	add	a5,a5,a4
 4f0:	2d482683          	lw	a3,724(a6)
 4f4:	2d882703          	lw	a4,728(a6)
 4f8:	00b787b3          	add	a5,a5,a1
 4fc:	00c787b3          	add	a5,a5,a2
 500:	2dc82583          	lw	a1,732(a6)
 504:	2e082603          	lw	a2,736(a6)
 508:	00d787b3          	add	a5,a5,a3
 50c:	00e787b3          	add	a5,a5,a4
 510:	2e482683          	lw	a3,740(a6)
 514:	2e882703          	lw	a4,744(a6)
 518:	00b787b3          	add	a5,a5,a1
 51c:	00c787b3          	add	a5,a5,a2
 520:	2ec82583          	lw	a1,748(a6)
 524:	2f082603          	lw	a2,752(a6)
 528:	00d787b3          	add	a5,a5,a3
 52c:	00e787b3          	add	a5,a5,a4
 530:	2f482683          	lw	a3,756(a6)
 534:	2f882703          	lw	a4,760(a6)
 538:	00b787b3          	add	a5,a5,a1
 53c:	2fc82503          	lw	a0,764(a6)
 540:	00c787b3          	add	a5,a5,a2
 544:	00c12403          	lw	s0,12(sp)
 548:	00d787b3          	add	a5,a5,a3
 54c:	00e787b3          	add	a5,a5,a4
 550:	00812483          	lw	s1,8(sp)
 554:	00a78533          	add	a0,a5,a0
 558:	01010113          	add	sp,sp,16
 55c:	00008067          	ret
 560:	40e00733          	neg	a4,a4
 564:	0207c263          	bltz	a5,588 <main+0x50c>
 568:	00100313          	li	t1,1
 56c:	d8079ee3          	bnez	a5,308 <main+0x28c>
 570:	dbdff06f          	j	32c <main+0x2b0>
 574:	00c888b3          	add	a7,a7,a2
 578:	db5ff06f          	j	32c <main+0x2b0>
 57c:	00100313          	li	t1,1
 580:	40f007b3          	neg	a5,a5
 584:	d85ff06f          	j	308 <main+0x28c>
 588:	00000313          	li	t1,0
 58c:	40f007b3          	neg	a5,a5
 590:	d79ff06f          	j	308 <main+0x28c>
